; Function Attrs: nounwind uwtable
define range(i32 -3, 1) i32 @IDASpilsSetGSType(ptr noundef %0, i32 noundef %1) local_unnamed_addr #0 {
  %3 = icmp eq ptr %0, null
  br i1 %3, label %4, label %5

4:                                                ; preds = %2
  tail call void (ptr, i32, ptr, ptr, ptr, ...) @IDAProcessError(ptr noundef null, i32 noundef -1, ptr noundef nonnull @.str, ptr noundef nonnull @.str.1, ptr noundef nonnull @.str.2) #5
  br label %18

5:                                                ; preds = %2
  %6 = getelementptr inbounds nuw i8, ptr %0, i64 1632
  %7 = load ptr, ptr %6, align 8, !tbaa !3
  %8 = icmp eq ptr %7, null
  br i1 %8, label %9, label %10

9:                                                ; preds = %5
  tail call void (ptr, i32, ptr, ptr, ptr, ...) @IDAProcessError(ptr noundef nonnull %0, i32 noundef -2, ptr noundef nonnull @.str, ptr noundef nonnull @.str.1, ptr noundef nonnull @.str.3) #5
  br label %18

10:                                               ; preds = %5
  %11 = load i32, ptr %7, align 8, !tbaa !17
  %.not = icmp eq i32 %11, 1
  br i1 %.not, label %13, label %12

12:                                               ; preds = %10
  tail call void (ptr, i32, ptr, ptr, ptr, ...) @IDAProcessError(ptr noundef nonnull %0, i32 noundef -3, ptr noundef nonnull @.str, ptr noundef nonnull @.str.1, ptr noundef nonnull @.str.4) #5
  br label %18

13:                                               ; preds = %10
  %14 = add i32 %1, -3
  %or.cond = icmp ult i32 %14, -2
  br i1 %or.cond, label %15, label %16

15:                                               ; preds = %13
  tail call void (ptr, i32, ptr, ptr, ptr, ...) @IDAProcessError(ptr noundef nonnull %0, i32 noundef -3, ptr noundef nonnull @.str, ptr noundef nonnull @.str.1, ptr noundef nonnull @.str.5) #5
  br label %18

16:                                               ; preds = %13
  %17 = getelementptr inbounds nuw i8, ptr %7, i64 4
  store i32 %1, ptr %17, align 4, !tbaa !19
  br label %18

18:                                               ; preds = %16, %15, %12, %9, %4
  %.0 = phi i32 [ -1, %4 ], [ -2, %9 ], [ -3, %12 ], [ -3, %15 ], [ 0, %16 ]
  ret i32 %.0
}